target datalayout = "e-m:e-p270:32:32-p271:32:32-p272:64:64-i64:64-i128:128-f80:128-n8:16:32:64-S128"
target triple = "x86_64-pc-linux-gnu"

%"class.folly::IPAddressV6" = type <{ %"union.folly::IPAddressV6::AddressStorage", i16, [2 x i8] }>
%"union.folly::IPAddressV6::AddressStorage" = type { %struct.in6_addr }
%struct.in6_addr = type { %union.anon }
%union.anon = type { [4 x i32] }
%"struct.std::array" = type { [16 x i8] }
%"class.folly::Range.11" = type { ptr, ptr }
%"class.google::LogMessageVoidify" = type { i8 }
%"class.google::LogMessageFatal" = type { %"class.google::LogMessage" }
%"class.google::LogMessage" = type { ptr, ptr }
%"class.std::ios_base" = type { ptr, i64, i64, i32, i32, i32, ptr, %"struct.std::ios_base::_Words", [8 x %"struct.std::ios_base::_Words"], i32, ptr, %"class.std::locale" }
%"struct.std::ios_base::_Words" = type { ptr, i64 }
%"class.std::locale" = type { ptr }

@.str.43 = private unnamed_addr constant [111 x i8] c"generated/home/dtcxzyw/WorkSpace/Projects/compilers/llvm-opt-benchmark/bench/folly/folly/folly/IPAddressV6.cpp\00", align 1
@.str.45 = private unnamed_addr constant [30 x i8] c"Check failed: !isMulticast() \00", align 1

; Function Attrs: inlinehint mustprogress nounwind uwtable
define linkonce_odr noundef i32 @_ZStorSt12_Ios_IostateS_(i32 noundef %0, i32 noundef %1) #8 comdat {
  %3 = alloca i32, align 4
  %4 = alloca i32, align 4
  store i32 %0, ptr %3, align 4, !tbaa !468
  store i32 %1, ptr %4, align 4, !tbaa !468
  %5 = load i32, ptr %3, align 4, !tbaa !468
  %6 = load i32, ptr %4, align 4, !tbaa !468
  %7 = or i32 %5, %6
  ret i32 %7
}

; Function Attrs: mustprogress nounwind uwtable
define available_externally noundef i32 @_ZNKSt9basic_iosIcSt11char_traitsIcEE7rdstateEv(ptr noundef nonnull align 8 dereferenceable(264) %0) #3 align 2 {
  %2 = alloca ptr, align 8
  store ptr %0, ptr %2, align 8, !tbaa !466
  %3 = load ptr, ptr %2, align 8
  %4 = getelementptr inbounds nuw %"class.std::ios_base", ptr %3, i32 0, i32 5
  %5 = load i32, ptr %4, align 8, !tbaa !470
  ret i32 %5
}

; Function Attrs: mustprogress nounwind uwtable
define linkonce_odr noundef nonnull align 1 dereferenceable(1) ptr @_ZNSt14__array_traitsIhLm16EE6_S_refERA16_Khm(ptr noundef nonnull align 1 dereferenceable(16) %0, i64 noundef %1) #3 comdat align 2 {
  %3 = alloca ptr, align 8
  %4 = alloca i64, align 8
  store ptr %0, ptr %3, align 8, !tbaa !28
  store i64 %1, ptr %4, align 8, !tbaa !12
  %5 = load ptr, ptr %3, align 8, !tbaa !28
  %6 = load i64, ptr %4, align 8, !tbaa !12
  %7 = getelementptr inbounds nuw [16 x i8], ptr %5, i64 0, i64 %6
  ret ptr %7
}

; Function Attrs: mustprogress nounwind uwtable
define linkonce_odr noundef i64 @_ZNSt11char_traitsIcE6lengthEPKc(ptr noundef %0) #3 comdat align 2 {
  %2 = alloca ptr, align 8
  store ptr %0, ptr %2, align 8, !tbaa !28
  %3 = load ptr, ptr %2, align 8, !tbaa !28
  %4 = call i64 @strlen(ptr noundef %3) #13
  ret i64 %4
}

; Function Attrs: mustprogress uwtable
define available_externally void @_ZNSt9basic_iosIcSt11char_traitsIcEE8setstateESt12_Ios_Iostate(ptr noundef nonnull align 8 dereferenceable(264) %0, i32 noundef %1) #0 align 2 {
  %3 = alloca ptr, align 8
  %4 = alloca i32, align 4
  store ptr %0, ptr %3, align 8, !tbaa !466
  store i32 %1, ptr %4, align 4, !tbaa !468
  %5 = load ptr, ptr %3, align 8
  %6 = call noundef i32 @_ZNKSt9basic_iosIcSt11char_traitsIcEE7rdstateEv(ptr noundef nonnull align 8 dereferenceable(264) %5)
  %7 = load i32, ptr %4, align 4, !tbaa !468
  %8 = call noundef i32 @_ZStorSt12_Ios_IostateS_(i32 noundef %6, i32 noundef %7)
  call void @_ZNSt9basic_iosIcSt11char_traitsIcEE5clearESt12_Ios_Iostate(ptr noundef nonnull align 8 dereferenceable(264) %5, i32 noundef %8)
  ret void
}

; Function Attrs: mustprogress nounwind uwtable
define linkonce_odr void @_ZN5folly5RangeIPKhEC2ES2_m(ptr noundef nonnull align 8 dereferenceable(16) %0, ptr noundef %1, i64 noundef %2) unnamed_addr #3 comdat align 2 {
  %4 = alloca ptr, align 8
  %5 = alloca ptr, align 8
  %6 = alloca i64, align 8
  store ptr %0, ptr %4, align 8, !tbaa !176
  store ptr %1, ptr %5, align 8, !tbaa !28
  store i64 %2, ptr %6, align 8, !tbaa !12
  %7 = load ptr, ptr %4, align 8
  %8 = getelementptr inbounds nuw %"class.folly::Range.11", ptr %7, i32 0, i32 0
  %9 = load ptr, ptr %5, align 8, !tbaa !28
  store ptr %9, ptr %8, align 8, !tbaa !180
  %10 = getelementptr inbounds nuw %"class.folly::Range.11", ptr %7, i32 0, i32 1
  %11 = load ptr, ptr %5, align 8, !tbaa !28
  %12 = load i64, ptr %6, align 8, !tbaa !12
  %13 = getelementptr inbounds nuw i8, ptr %11, i64 %12
  store ptr %13, ptr %10, align 8, !tbaa !182
  ret void
}

; Function Attrs: mustprogress nounwind uwtable
define linkonce_odr noundef nonnull align 1 dereferenceable(1) ptr @_ZNKSt5arrayIhLm16EEixEm(ptr noundef nonnull align 1 dereferenceable(16) %0, i64 noundef %1) #3 comdat align 2 {
  %3 = alloca ptr, align 8
  %4 = alloca i64, align 8
  store ptr %0, ptr %3, align 8, !tbaa !157
  store i64 %1, ptr %4, align 8, !tbaa !12
  %5 = load ptr, ptr %3, align 8
  %6 = getelementptr inbounds nuw %"struct.std::array", ptr %5, i32 0, i32 0
  %7 = load i64, ptr %4, align 8, !tbaa !12
  %8 = call noundef nonnull align 1 dereferenceable(1) ptr @_ZNSt14__array_traitsIhLm16EE6_S_refERA16_Khm(ptr noundef nonnull align 1 dereferenceable(16) %6, i64 noundef %7) #13
  ret ptr %8
}

; Function Attrs: mustprogress nounwind uwtable
define linkonce_odr void @_ZN6google17LogMessageVoidifyanERSo(ptr noundef nonnull align 1 dereferenceable(1) %0, ptr noundef nonnull align 8 dereferenceable(8) %1) #3 comdat align 2 {
  %3 = alloca ptr, align 8
  %4 = alloca ptr, align 8
  store ptr %0, ptr %3, align 8, !tbaa !464
  store ptr %1, ptr %4, align 8, !tbaa !14
  ret void
}

; Function Attrs: inlinehint mustprogress uwtable
define available_externally noundef nonnull align 8 dereferenceable(8) ptr @_ZStlsISt11char_traitsIcEERSt13basic_ostreamIcT_ES5_PKc(ptr noundef nonnull align 8 dereferenceable(8) %0, ptr noundef %1) #1 {
  %3 = alloca ptr, align 8
  %4 = alloca ptr, align 8
  store ptr %0, ptr %3, align 8, !tbaa !14
  store ptr %1, ptr %4, align 8, !tbaa !28
  %5 = load ptr, ptr %4, align 8, !tbaa !28
  %6 = icmp ne ptr %5, null
  br i1 %6, label %13, label %7

7:                                                ; preds = %2
  %8 = load ptr, ptr %3, align 8, !tbaa !14
  %9 = load ptr, ptr %8, align 8, !tbaa !72
  %10 = getelementptr i8, ptr %9, i64 -24
  %11 = load i64, ptr %10, align 8
  %12 = getelementptr inbounds i8, ptr %8, i64 %11
  call void @_ZNSt9basic_iosIcSt11char_traitsIcEE8setstateESt12_Ios_Iostate(ptr noundef nonnull align 8 dereferenceable(264) %12, i32 noundef 1)
  br label %19

13:                                               ; preds = %2
  %14 = load ptr, ptr %3, align 8, !tbaa !14
  %15 = load ptr, ptr %4, align 8, !tbaa !28
  %16 = load ptr, ptr %4, align 8, !tbaa !28
  %17 = call noundef i64 @_ZNSt11char_traitsIcE6lengthEPKc(ptr noundef %16)
  %18 = call noundef nonnull align 8 dereferenceable(8) ptr @_ZSt16__ostream_insertIcSt11char_traitsIcEERSt13basic_ostreamIT_T0_ES6_PKS3_l(ptr noundef nonnull align 8 dereferenceable(8) %14, ptr noundef %15, i64 noundef %17)
  br label %19

19:                                               ; preds = %13, %7
  %20 = load ptr, ptr %3, align 8, !tbaa !14
  ret ptr %20
}

; Function Attrs: mustprogress nounwind uwtable
define linkonce_odr void @_ZN6google17LogMessageVoidifyC2Ev(ptr noundef nonnull align 1 dereferenceable(1) %0) unnamed_addr #3 comdat align 2 {
  %2 = alloca ptr, align 8
  store ptr %0, ptr %2, align 8, !tbaa !464
  ret void
}

; Function Attrs: mustprogress nounwind uwtable
define noundef zeroext i1 @_ZNK5folly11IPAddressV611isMulticastEv(ptr noundef nonnull align 4 dereferenceable(18) %0) #3 align 2 {
  %2 = alloca ptr, align 8
  store ptr %0, ptr %2, align 8, !tbaa !7
  %3 = load ptr, ptr %2, align 8
  %4 = getelementptr inbounds nuw %"class.folly::IPAddressV6", ptr %3, i32 0, i32 0
  %5 = call noundef nonnull align 1 dereferenceable(1) ptr @_ZNKSt5arrayIhLm16EEixEm(ptr noundef nonnull align 1 dereferenceable(16) %4, i64 noundef 0) #13
  %6 = load i8, ptr %5, align 1, !tbaa !22
  %7 = zext i8 %6 to i32
  %8 = icmp eq i32 %7, 255
  ret i1 %8
}

; Function Attrs: mustprogress uwtable
define void @_ZNK5folly11IPAddressV623getSolicitedNodeAddressEv(ptr dead_on_unwind noalias writable sret(%"class.folly::IPAddressV6") align 4 %0, ptr noundef nonnull align 4 dereferenceable(18) %1) #0 align 2 personality ptr @__gxx_personality_v0 {
  %3 = alloca ptr, align 8
  %4 = alloca %"class.google::LogMessageVoidify", align 1
  %5 = alloca %"class.google::LogMessageFatal", align 8
  %6 = alloca i1, align 1
  %7 = alloca i1, align 1
  %8 = alloca ptr, align 8
  %9 = alloca i32, align 4
  %10 = alloca [16 x i8], align 16
  %11 = alloca %"class.folly::Range.11", align 8
  store ptr %1, ptr %3, align 8, !tbaa !7
  %12 = load ptr, ptr %3, align 8
  br label %13

13:                                               ; preds = %39, %2
  br i1 false, label %14, label %46

14:                                               ; preds = %13
  %15 = call noundef zeroext i1 @_ZNK5folly11IPAddressV611isMulticastEv(ptr noundef nonnull align 4 dereferenceable(18) %12)
  %16 = xor i1 %15, true
  %17 = xor i1 %16, true
  %18 = zext i1 %17 to i64
  %19 = call i64 @llvm.expect.i64(i64 %18, i64 0)
  %20 = icmp ne i64 %19, 0
  call void @llvm.lifetime.start.p0(i64 1, ptr %4) #13
  store i1 false, ptr %6, align 1
  store i1 false, ptr %7, align 1
  br i1 %20, label %22, label %21

21:                                               ; preds = %14
  br label %27

22:                                               ; preds = %14
  call void @_ZN6google17LogMessageVoidifyC2Ev(ptr noundef nonnull align 1 dereferenceable(1) %4)
  call void @llvm.lifetime.start.p0(i64 16, ptr %5) #13
  store i1 true, ptr %6, align 1
  call void @_ZN6google15LogMessageFatalC1EPKci(ptr noundef nonnull align 8 dereferenceable(16) %5, ptr noundef @.str.43, i32 noundef 410)
  store i1 true, ptr %7, align 1
  %23 = invoke noundef nonnull align 8 dereferenceable(8) ptr @_ZN6google10LogMessage6streamEv(ptr noundef nonnull align 8 dereferenceable(16) %5)
          to label %24 unwind label %30

24:                                               ; preds = %22
  %25 = invoke noundef nonnull align 8 dereferenceable(8) ptr @_ZStlsISt11char_traitsIcEERSt13basic_ostreamIcT_ES5_PKc(ptr noundef nonnull align 8 dereferenceable(8) %23, ptr noundef @.str.45)
          to label %26 unwind label %30

26:                                               ; preds = %24
  call void @_ZN6google17LogMessageVoidifyanERSo(ptr noundef nonnull align 1 dereferenceable(1) %4, ptr noundef nonnull align 8 dereferenceable(8) %25)
  br label %27

27:                                               ; preds = %26, %21
  %28 = load i1, ptr %7, align 1
  br i1 %28, label %29, label %36

29:                                               ; preds = %27
  call void @_ZN6google15LogMessageFatalD1Ev(ptr noundef nonnull align 8 dereferenceable(16) %5) #34
  unreachable

30:                                               ; preds = %24, %22
  %31 = landingpad { ptr, i32 }
          cleanup
  %32 = extractvalue { ptr, i32 } %31, 0
  store ptr %32, ptr %8, align 8
  %33 = extractvalue { ptr, i32 } %31, 1
  store i32 %33, ptr %9, align 4
  %34 = load i1, ptr %7, align 1
  br i1 %34, label %40, label %42

35:                                               ; No predecessors!
  br label %36

36:                                               ; preds = %35, %27
  %37 = load i1, ptr %6, align 1
  br i1 %37, label %38, label %39

38:                                               ; preds = %36
  call void @llvm.lifetime.end.p0(i64 16, ptr %5) #13
  br label %39

39:                                               ; preds = %38, %36
  call void @llvm.lifetime.end.p0(i64 1, ptr %4) #13
  br label %13, !llvm.loop !478

40:                                               ; preds = %30
  call void @_ZN6google15LogMessageFatalD1Ev(ptr noundef nonnull align 8 dereferenceable(16) %5) #34
  unreachable

41:                                               ; No predecessors!
  br label %42

42:                                               ; preds = %41, %30
  %43 = load i1, ptr %6, align 1
  br i1 %43, label %44, label %45

44:                                               ; preds = %42
  call void @llvm.lifetime.end.p0(i64 16, ptr %5) #13
  br label %45

45:                                               ; preds = %44, %42
  call void @llvm.lifetime.end.p0(i64 1, ptr %4) #13
  br label %76

46:                                               ; preds = %13
  call void @llvm.lifetime.start.p0(i64 16, ptr %10) #13
  store i8 -1, ptr %10, align 1, !tbaa !22
  %47 = getelementptr inbounds i8, ptr %10, i64 1
  store i8 2, ptr %47, align 1, !tbaa !22
  %48 = getelementptr inbounds i8, ptr %10, i64 2
  store i8 0, ptr %48, align 1, !tbaa !22
  %49 = getelementptr inbounds i8, ptr %10, i64 3
  store i8 0, ptr %49, align 1, !tbaa !22
  %50 = getelementptr inbounds i8, ptr %10, i64 4
  store i8 0, ptr %50, align 1, !tbaa !22
  %51 = getelementptr inbounds i8, ptr %10, i64 5
  store i8 0, ptr %51, align 1, !tbaa !22
  %52 = getelementptr inbounds i8, ptr %10, i64 6
  store i8 0, ptr %52, align 1, !tbaa !22
  %53 = getelementptr inbounds i8, ptr %10, i64 7
  store i8 0, ptr %53, align 1, !tbaa !22
  %54 = getelementptr inbounds i8, ptr %10, i64 8
  store i8 0, ptr %54, align 1, !tbaa !22
  %55 = getelementptr inbounds i8, ptr %10, i64 9
  store i8 0, ptr %55, align 1, !tbaa !22
  %56 = getelementptr inbounds i8, ptr %10, i64 10
  store i8 0, ptr %56, align 1, !tbaa !22
  %57 = getelementptr inbounds i8, ptr %10, i64 11
  store i8 1, ptr %57, align 1, !tbaa !22
  %58 = getelementptr inbounds i8, ptr %10, i64 12
  store i8 -1, ptr %58, align 1, !tbaa !22
  %59 = getelementptr inbounds i8, ptr %10, i64 13
  %60 = getelementptr inbounds nuw %"class.folly::IPAddressV6", ptr %12, i32 0, i32 0
  %61 = call noundef nonnull align 1 dereferenceable(1) ptr @_ZNKSt5arrayIhLm16EEixEm(ptr noundef nonnull align 1 dereferenceable(16) %60, i64 noundef 13) #13
  %62 = load i8, ptr %61, align 1, !tbaa !22
  store i8 %62, ptr %59, align 1, !tbaa !22
  %63 = getelementptr inbounds i8, ptr %10, i64 14
  %64 = getelementptr inbounds nuw %"class.folly::IPAddressV6", ptr %12, i32 0, i32 0
  %65 = call noundef nonnull align 1 dereferenceable(1) ptr @_ZNKSt5arrayIhLm16EEixEm(ptr noundef nonnull align 1 dereferenceable(16) %64, i64 noundef 14) #13
  %66 = load i8, ptr %65, align 1, !tbaa !22
  store i8 %66, ptr %63, align 1, !tbaa !22
  %67 = getelementptr inbounds i8, ptr %10, i64 15
  %68 = getelementptr inbounds nuw %"class.folly::IPAddressV6", ptr %12, i32 0, i32 0
  %69 = call noundef nonnull align 1 dereferenceable(1) ptr @_ZNKSt5arrayIhLm16EEixEm(ptr noundef nonnull align 1 dereferenceable(16) %68, i64 noundef 15) #13
  %70 = load i8, ptr %69, align 1, !tbaa !22
  store i8 %70, ptr %67, align 1, !tbaa !22
  %71 = getelementptr inbounds [16 x i8], ptr %10, i64 0, i64 0
  call void @_ZN5folly5RangeIPKhEC2ES2_m(ptr noundef nonnull align 8 dereferenceable(16) %11, ptr noundef %71, i64 noundef 16)
  %72 = getelementptr inbounds nuw { ptr, ptr }, ptr %11, i32 0, i32 0
  %73 = load ptr, ptr %72, align 8
  %74 = getelementptr inbounds nuw { ptr, ptr }, ptr %11, i32 0, i32 1
  %75 = load ptr, ptr %74, align 8
  call void @_ZN5folly11IPAddressV610fromBinaryENS_5RangeIPKhEE(ptr dead_on_unwind writable sret(%"class.folly::IPAddressV6") align 4 %0, ptr %73, ptr %75)
  call void @llvm.lifetime.end.p0(i64 16, ptr %10) #13
  ret void

76:                                               ; preds = %45
  %77 = load ptr, ptr %8, align 8
  %78 = load i32, ptr %9, align 4
  %79 = insertvalue { ptr, i32 } poison, ptr %77, 0
  %80 = insertvalue { ptr, i32 } %79, i32 %78, 1
  resume { ptr, i32 } %80
}