; Function Attrs: mustprogress uwtable
define void @_ZNK5folly11IPAddressV623getSolicitedNodeAddressEv(ptr dead_on_unwind noalias writable writeonly sret(%"class.folly::IPAddressV6") align 4 captures(none) %0, ptr noundef nonnull readonly align 4 captures(none) dereferenceable(18) %1) local_unnamed_addr #0 align 2 personality ptr @__gxx_personality_v0 {
  %3 = alloca [16 x i8], align 16
  call void @llvm.lifetime.start.p0(i64 16, ptr nonnull %3) #37
  store i8 -1, ptr %3, align 16, !tbaa !9
  %4 = getelementptr inbounds nuw i8, ptr %3, i64 1
  store i8 2, ptr %4, align 1, !tbaa !9
  %5 = getelementptr inbounds nuw i8, ptr %3, i64 2
  %6 = getelementptr inbounds nuw i8, ptr %3, i64 11
  call void @llvm.memset.p0.i64(ptr noundef nonnull align 2 dereferenceable(9) %5, i8 0, i64 9, i1 false)
  store i8 1, ptr %6, align 1, !tbaa !9
  %7 = getelementptr inbounds nuw i8, ptr %3, i64 12
  store i8 -1, ptr %7, align 4, !tbaa !9
  %8 = getelementptr inbounds nuw i8, ptr %3, i64 13
  %9 = getelementptr inbounds nuw i8, ptr %1, i64 13
  %10 = load i8, ptr %9, align 1, !tbaa !9
  store i8 %10, ptr %8, align 1, !tbaa !9
  %11 = getelementptr inbounds nuw i8, ptr %3, i64 14
  %12 = getelementptr inbounds nuw i8, ptr %1, i64 14
  %13 = load i8, ptr %12, align 2, !tbaa !9
  store i8 %13, ptr %11, align 2, !tbaa !9
  %14 = getelementptr inbounds nuw i8, ptr %3, i64 15
  %15 = getelementptr inbounds nuw i8, ptr %1, i64 15
  %16 = load i8, ptr %15, align 1, !tbaa !9
  store i8 %16, ptr %14, align 1, !tbaa !9
  %17 = getelementptr inbounds nuw i8, ptr %3, i64 16
  call void @_ZN5folly11IPAddressV610fromBinaryENS_5RangeIPKhEE(ptr dead_on_unwind writable sret(%"class.folly::IPAddressV6") align 4 %0, ptr nonnull %3, ptr nonnull %17)
  call void @llvm.lifetime.end.p0(i64 16, ptr nonnull %3) #37
  ret void
}